; Function Attrs: mustprogress nounwind uwtable
define internal fastcc void @_ZNSt8_Rb_treeIN9grpc_core18EndpointAddressSetESt4pairIKS1_PNS0_12_GLOBAL__N_118WeightedRoundRobin14EndpointWeightEESt10_Select1stIS8_ESt4lessIS1_ESaIS8_EE8_M_eraseEPSt13_Rb_tree_nodeIS8_E(ptr noundef %__x) unnamed_addr #13 align 2 personality ptr @__gxx_personality_v0 {
entry:
  %cmp.not5 = icmp eq ptr %__x, null
  br i1 %cmp.not5, label %while.end, label %while.body

while.body:                                       ; preds = %entry, %_ZNSt8_Rb_treeIN9grpc_core18EndpointAddressSetESt4pairIKS1_PNS0_12_GLOBAL__N_118WeightedRoundRobin14EndpointWeightEESt10_Select1stIS8_ESt4lessIS1_ESaIS8_EE12_M_drop_nodeEPSt13_Rb_tree_nodeIS8_E.exit
  %__x.addr.06 = phi ptr [ %__x.addr.0.val4, %_ZNSt8_Rb_treeIN9grpc_core18EndpointAddressSetESt4pairIKS1_PNS0_12_GLOBAL__N_118WeightedRoundRobin14EndpointWeightEESt10_Select1stIS8_ESt4lessIS1_ESaIS8_EE12_M_drop_nodeEPSt13_Rb_tree_nodeIS8_E.exit ], [ %__x, %entry ]
  %0 = getelementptr i8, ptr %__x.addr.06, i64 24
  %__x.addr.0.val = load ptr, ptr %0, align 8
  tail call fastcc void @_ZNSt8_Rb_treeIN9grpc_core18EndpointAddressSetESt4pairIKS1_PNS0_12_GLOBAL__N_118WeightedRoundRobin14EndpointWeightEESt10_Select1stIS8_ESt4lessIS1_ESaIS8_EE8_M_eraseEPSt13_Rb_tree_nodeIS8_E(ptr noundef %__x.addr.0.val)
  %1 = getelementptr i8, ptr %__x.addr.06, i64 16
  %__x.addr.0.val4 = load ptr, ptr %1, align 8
  %_M_storage.i.i.i = getelementptr inbounds i8, ptr %__x.addr.06, i64 32
  %_M_parent.i.i.i.i.i.i.i.i.i.i = getelementptr inbounds i8, ptr %__x.addr.06, i64 48
  %2 = load ptr, ptr %_M_parent.i.i.i.i.i.i.i.i.i.i, align 8
  invoke void @_ZNSt8_Rb_treeI21grpc_resolved_addressS0_St9_IdentityIS0_EN9grpc_core23ResolvedAddressLessThanESaIS0_EE8_M_eraseEPSt13_Rb_tree_nodeIS0_E(ptr noundef nonnull align 8 dereferenceable(48) %_M_storage.i.i.i, ptr noundef %2)
          to label %_ZNSt8_Rb_treeIN9grpc_core18EndpointAddressSetESt4pairIKS1_PNS0_12_GLOBAL__N_118WeightedRoundRobin14EndpointWeightEESt10_Select1stIS8_ESt4lessIS1_ESaIS8_EE12_M_drop_nodeEPSt13_Rb_tree_nodeIS8_E.exit unwind label %terminate.lpad.i.i.i.i.i.i.i.i

terminate.lpad.i.i.i.i.i.i.i.i:                   ; preds = %while.body
  %3 = landingpad { ptr, i32 }
          catch ptr null
  %4 = extractvalue { ptr, i32 } %3, 0
  tail call void @__clang_call_terminate(ptr %4) #31
  unreachable

_ZNSt8_Rb_treeIN9grpc_core18EndpointAddressSetESt4pairIKS1_PNS0_12_GLOBAL__N_118WeightedRoundRobin14EndpointWeightEESt10_Select1stIS8_ESt4lessIS1_ESaIS8_EE12_M_drop_nodeEPSt13_Rb_tree_nodeIS8_E.exit: ; preds = %while.body
  tail call void @_ZdlPv(ptr noundef nonnull %__x.addr.06) #32
  %cmp.not = icmp eq ptr %__x.addr.0.val4, null
  br i1 %cmp.not, label %while.end, label %while.body, !llvm.loop !150

while.end:                                        ; preds = %_ZNSt8_Rb_treeIN9grpc_core18EndpointAddressSetESt4pairIKS1_PNS0_12_GLOBAL__N_118WeightedRoundRobin14EndpointWeightEESt10_Select1stIS8_ESt4lessIS1_ESaIS8_EE12_M_drop_nodeEPSt13_Rb_tree_nodeIS8_E.exit, %entry
  ret void
}